target datalayout = "e-m:e-p270:32:32-p271:32:32-p272:64:64-i64:64-i128:128-f80:128-n8:16:32:64-S128"
target triple = "x86_64-pc-linux-gnu"

%class.ReservedSpace = type <{ ptr, i64, i64, i64, i64, i8, [3 x i8], i32, i8, [7 x i8] }>

; Function Attrs: mustprogress nounwind uwtable
define hidden void @_ZN13ReservedSpace18initialize_membersEPcmmmbb(ptr noundef nonnull align 8 dereferenceable(49) %0, ptr noundef %1, i64 noundef %2, i64 noundef %3, i64 noundef %4, i1 noundef zeroext %5, i1 noundef zeroext %6) #1 align 2 {
  %8 = alloca ptr, align 8
  %9 = alloca ptr, align 8
  %10 = alloca i64, align 8
  %11 = alloca i64, align 8
  %12 = alloca i64, align 8
  %13 = alloca i8, align 1
  %14 = alloca i8, align 1
  store ptr %0, ptr %8, align 8
  store ptr %1, ptr %9, align 8
  store i64 %2, ptr %10, align 8
  store i64 %3, ptr %11, align 8
  store i64 %4, ptr %12, align 8
  %15 = zext i1 %5 to i8
  store i8 %15, ptr %13, align 1
  %16 = zext i1 %6 to i8
  store i8 %16, ptr %14, align 1
  %17 = load ptr, ptr %8, align 8
  %18 = load ptr, ptr %9, align 8
  %19 = getelementptr inbounds %class.ReservedSpace, ptr %17, i32 0, i32 0
  store ptr %18, ptr %19, align 8
  %20 = load i64, ptr %10, align 8
  %21 = getelementptr inbounds %class.ReservedSpace, ptr %17, i32 0, i32 1
  store i64 %20, ptr %21, align 8
  %22 = load i64, ptr %11, align 8
  %23 = getelementptr inbounds %class.ReservedSpace, ptr %17, i32 0, i32 3
  store i64 %22, ptr %23, align 8
  %24 = load i64, ptr %12, align 8
  %25 = getelementptr inbounds %class.ReservedSpace, ptr %17, i32 0, i32 4
  store i64 %24, ptr %25, align 8
  %26 = load i8, ptr %13, align 1
  %27 = trunc i8 %26 to i1
  %28 = getelementptr inbounds %class.ReservedSpace, ptr %17, i32 0, i32 5
  %29 = zext i1 %27 to i8
  store i8 %29, ptr %28, align 8
  %30 = load i8, ptr %14, align 1
  %31 = trunc i8 %30 to i1
  %32 = getelementptr inbounds %class.ReservedSpace, ptr %17, i32 0, i32 8
  %33 = zext i1 %31 to i8
  store i8 %33, ptr %32, align 8
  %34 = getelementptr inbounds %class.ReservedSpace, ptr %17, i32 0, i32 2
  store i64 0, ptr %34, align 8
  ret void
}

; Function Attrs: mustprogress nounwind uwtable
define hidden void @_ZN13ReservedSpaceC2EPcmmmbb(ptr noundef nonnull align 8 dereferenceable(49) %0, ptr noundef %1, i64 noundef %2, i64 noundef %3, i64 noundef %4, i1 noundef zeroext %5, i1 noundef zeroext %6) unnamed_addr #1 align 2 {
  %8 = alloca ptr, align 8
  %9 = alloca ptr, align 8
  %10 = alloca i64, align 8
  %11 = alloca i64, align 8
  %12 = alloca i64, align 8
  %13 = alloca i8, align 1
  %14 = alloca i8, align 1
  store ptr %0, ptr %8, align 8
  store ptr %1, ptr %9, align 8
  store i64 %2, ptr %10, align 8
  store i64 %3, ptr %11, align 8
  store i64 %4, ptr %12, align 8
  %15 = zext i1 %5 to i8
  store i8 %15, ptr %13, align 1
  %16 = zext i1 %6 to i8
  store i8 %16, ptr %14, align 1
  %17 = load ptr, ptr %8, align 8
  %18 = getelementptr inbounds %class.ReservedSpace, ptr %17, i32 0, i32 7
  store i32 -1, ptr %18, align 4
  %19 = load ptr, ptr %9, align 8
  %20 = load i64, ptr %10, align 8
  %21 = load i64, ptr %11, align 8
  %22 = load i64, ptr %12, align 8
  %23 = load i8, ptr %13, align 1
  %24 = trunc i8 %23 to i1
  %25 = load i8, ptr %14, align 1
  %26 = trunc i8 %25 to i1
  call void @_ZN13ReservedSpace18initialize_membersEPcmmmbb(ptr noundef nonnull align 8 dereferenceable(49) %17, ptr noundef %19, i64 noundef %20, i64 noundef %21, i64 noundef %22, i1 noundef zeroext %24, i1 noundef zeroext %26)
  ret void
}