; Function Attrs: mustprogress nofree norecurse nosync nounwind willreturn memory(argmem: write) uwtable
define hidden void @_ZN13ReservedSpaceC2EPcmmmbb(ptr nocapture noundef nonnull writeonly align 8 dereferenceable(49) %0, ptr noundef %1, i64 noundef %2, i64 noundef %3, i64 noundef %4, i1 noundef zeroext %5, i1 noundef zeroext %6) unnamed_addr #0 align 2 {
  %8 = getelementptr inbounds i8, ptr %0, i64 44
  store i32 -1, ptr %8, align 4
  %9 = zext i1 %5 to i8
  %10 = zext i1 %6 to i8
  store ptr %1, ptr %0, align 8
  %11 = getelementptr inbounds i8, ptr %0, i64 8
  store i64 %2, ptr %11, align 8
  %12 = getelementptr inbounds i8, ptr %0, i64 24
  store i64 %3, ptr %12, align 8
  %13 = getelementptr inbounds i8, ptr %0, i64 32
  store i64 %4, ptr %13, align 8
  %14 = getelementptr inbounds i8, ptr %0, i64 40
  store i8 %9, ptr %14, align 8
  %15 = getelementptr inbounds i8, ptr %0, i64 48
  store i8 %10, ptr %15, align 8
  %16 = getelementptr inbounds i8, ptr %0, i64 16
  store i64 0, ptr %16, align 8
  ret void
}